; ModuleID = 'source-C-CXX/44/2509.c'
source_filename = "source-C-CXX/44/2509.c"
target datalayout = "e-m:e-p270:32:32-p271:32:32-p272:64:64-i64:64-f80:128-n8:16:32:64-S128"
target triple = "x86_64-pc-linux-gnu"

@.str = private unnamed_addr constant [3 x i8] c"%s\00", align 1
@.str.1 = private unnamed_addr constant [3 x i8] c"%d\00", align 1

; Function Attrs: nofree nounwind sspstrong uwtable
define dso_local i32 @main() local_unnamed_addr #0 {
  %1 = alloca [300 x i8], align 16
  %2 = alloca [300 x i8], align 16
  %3 = getelementptr inbounds [300 x i8], [300 x i8]* %1, i64 0, i64 0
  call void @llvm.lifetime.start.p0i8(i64 300, i8* nonnull %3) #3
  %4 = getelementptr inbounds [300 x i8], [300 x i8]* %2, i64 0, i64 0
  call void @llvm.lifetime.start.p0i8(i64 300, i8* nonnull %4) #3
  %5 = call i32 (i8*, ...) @__isoc99_scanf(i8* getelementptr inbounds ([3 x i8], [3 x i8]* @.str, i64 0, i64 0), i8* nonnull %3)
  %6 = call i32 (i8*, ...) @__isoc99_scanf(i8* getelementptr inbounds ([3 x i8], [3 x i8]* @.str, i64 0, i64 0), i8* nonnull %4)
  %7 = load i8, i8* %3, align 16, !tbaa !5
  %8 = icmp eq i8 %7, 0
  br i1 %8, label %9, label %12

9:                                                ; preds = %12, %0
  %10 = load i8, i8* %4, align 16, !tbaa !5
  %11 = icmp eq i8 %10, 0
  br i1 %11, label %30, label %18

12:                                               ; preds = %0, %12
  %13 = phi i64 [ %14, %12 ], [ 0, %0 ]
  %14 = add nuw nsw i64 %13, 1
  %15 = getelementptr inbounds [300 x i8], [300 x i8]* %1, i64 0, i64 %14
  %16 = load i8, i8* %15, align 1, !tbaa !5
  %17 = icmp eq i8 %16, 0
  br i1 %17, label %9, label %12, !llvm.loop !8

18:                                               ; preds = %9, %25
  %19 = phi i64 [ %26, %25 ], [ 0, %9 ]
  %20 = phi i8 [ %28, %25 ], [ %10, %9 ]
  %21 = icmp eq i8 %7, %20
  br i1 %21, label %22, label %25

22:                                               ; preds = %18
  %23 = trunc i64 %19 to i32
  %24 = call i32 (i8*, ...) @printf(i8* nonnull dereferenceable(1) getelementptr inbounds ([3 x i8], [3 x i8]* @.str.1, i64 0, i64 0), i32 %23)
  br label %30

25:                                               ; preds = %18
  %26 = add nuw i64 %19, 1
  %27 = getelementptr inbounds [300 x i8], [300 x i8]* %2, i64 0, i64 %26
  %28 = load i8, i8* %27, align 1, !tbaa !5
  %29 = icmp eq i8 %28, 0
  br i1 %29, label %30, label %18, !llvm.loop !10

30:                                               ; preds = %25, %9, %22
  call void @llvm.lifetime.end.p0i8(i64 300, i8* nonnull %4) #3
  call void @llvm.lifetime.end.p0i8(i64 300, i8* nonnull %3) #3
  ret i32 0
}

; Function Attrs: argmemonly mustprogress nofree nosync nounwind willreturn
declare void @llvm.lifetime.start.p0i8(i64 immarg, i8* nocapture) #1

; Function Attrs: nofree nounwind
declare noundef i32 @__isoc99_scanf(i8* nocapture noundef readonly, ...) local_unnamed_addr #2

; Function Attrs: nofree nounwind
declare noundef i32 @printf(i8* nocapture noundef readonly, ...) local_unnamed_addr #2

; Function Attrs: argmemonly mustprogress nofree nosync nounwind willreturn
declare void @llvm.lifetime.end.p0i8(i64 immarg, i8* nocapture) #1


!llvm.module.flags = !{!0, !1, !2, !3}
!llvm.ident = !{!4}

!0 = !{i32 1, !"wchar_size", i32 4}
!1 = !{i32 7, !"PIC Level", i32 2}
!2 = !{i32 7, !"PIE Level", i32 2}
!3 = !{i32 7, !"uwtable", i32 1}
!4 = !{!"clang version 13.0.0"}
!5 = !{!6, !6, i64 0}
!6 = !{!"omnipotent char", !7, i64 0}
!7 = !{!"Simple C/C++ TBAA"}
!8 = distinct !{!8, !9}
!9 = !{!"llvm.loop.mustprogress"}
!10 = distinct !{!10, !9}
